(dp0
S"['a', 'member']"
p1
I1
sS"['size', 'of']"
p2
I1
sS"['before', 'my']"
p3
I1
sS"['ended', 'up']"
p4
I1
sS"['about', 'basic']"
p5
I1
sS"['used', 'to']"
p6
I1
sS"['fed', 'my']"
p7
I1
sS"['were', 'spent']"
p8
I1
sS"['could', 'monitor']"
p9
I1
sS"['would', 'demand']"
p10
I1
sS"['competitive', 'hobby']"
p11
I1
sS"['into', 'lod']"
p12
I1
sS"['change', 'people']"
p13
I1
sS"['a', 'shadowy']"
p14
I1
sS"['my', 'modem']"
p15
I1
sS"['technical', 'schematics']"
p16
I1
sS"['still', 'glad']"
p17
I1
sS"['spent', 'calling']"
p18
I1
sS"['most', 'feared']"
p19
I1
sS"['obstruct', 'our']"
p20
I1
sS"['s', 'mystique']"
p21
I1
sS"['point', 'without']"
p22
I1
sS"['had', 'been']"
p23
I2
sS"['but', 'things']"
p24
I1
sS"['i', 'hooked']"
p25
I1
sS"['in', 'california']"
p26
I1
sS"['my', 'ego']"
p27
I1
sS"['until', 'my']"
p28
I1
sS"['didn', 't']"
p29
I1
sS"['local', 'bulletin']"
p30
I1
sS"['monitor', 'lines']"
p31
I1
sS"['hooked', 'up']"
p32
I1
sS"['a', 'statement']"
p33
I1
sS"['and', 'could']"
p34
I1
sS"['the', 'sites']"
p35
I1
sS"['a', 'computer']"
p36
I2
sS"['time', 'to']"
p37
I1
sS"['was', 'rummaging']"
p38
I1
sS"['my', 'descent']"
p39
I1
sS"['existence-a', 'secret']"
p40
I1
sS"['when', 'i']"
p41
I2
sS"['the', 'words']"
p42
I1
sS"['like', 'i']"
p43
I1
sS"['pull', 'our']"
p44
I1
sS"['into', 'systems']"
p45
I1
sS"['games', 'at']"
p46
I1
sS"['cracked', 'many']"
p47
I1
sS"['and', 'technical']"
p48
I1
sS"['explored', 'the']"
p49
I1
sS"['calls', 'all']"
p50
I1
sS"['rest', 'of']"
p51
I1
sS"['company', 'manuals-and']"
p52
I1
sS"['of', 'doom']"
p53
I3
sS"['through', 'a']"
p54
I1
sS"['a', 'competitive']"
p55
I1
sS"['was', 'pretty']"
p56
I1
sS"['eventually', 'earn']"
p57
I1
sS"['taking', 'all']"
p58
I1
sS"['reports', 'and']"
p59
I1
sS"['getting', 'the']"
p60
I1
sS"['old', 'voice']"
p61
I1
sS"['into', 'payphones']"
p62
I1
sS"['my', 'keep']"
p63
I1
sS"['has', 'now']"
p64
I1
sS"['all', 'hackers']"
p65
I1
sS"['s', 'home']"
p66
I1
sS"['pretty', 'scary']"
p67
I1
sS"['intruder', 'had']"
p68
I1
sS"['mysterious', 'people']"
p69
I1
sS"['lists', 'of']"
p70
I1
sS"['time', 'but']"
p71
I1
sS"['nobody', 'knew']"
p72
I1
sS"['once', 'they']"
p73
I1
sS"['i', 'started']"
p74
I2
sS"['all', 'night']"
p75
I1
sS"['t', 'prepared']"
p76
I1
sS"['almost', 'limitless']"
p77
I1
sS"['lived', 'all']"
p78
I1
sS"['demand', 'money']"
p79
I1
sS"['trusted', 'you']"
p80
I1
sS"['telephone', 'technician']"
p81
I1
sS"['and', 'what']"
p82
I1
sS"['a', 'little']"
p83
I1
sS"['lod', 'into']"
p84
I1
sS"['elite', 'of']"
p85
I1
sS"['be', 'illegal']"
p86
I1
sS"['hacker', 'group']"
p87
I1
sS"['are', 'the']"
p88
I1
sS"['calling', 'lame']"
p89
I1
sS"['knew', 'who']"
p90
I1
sS"['new', 'york']"
p91
I1
sS"['like', 'bill']"
p92
I1
sS"['i', 'wasn']"
p93
I2
sS"['security', 'researchers']"
p94
I1
sS"['immediately', 'taking']"
p95
I1
sS"['the', 'call']"
p96
I2
sS"['system', 'and']"
p97
I1
sS"['parents', 'had']"
p98
I1
sS"['hackers', 'are']"
p99
I1
sS"['importantly', 'membership']"
p100
I1
sS"['this', 'was']"
p101
I1
sS"['engineer', 'a']"
p102
I1
sS"['kept', 'a']"
p103
I1
sS"['time', 'they']"
p104
I1
sS"['the', 'elite']"
p105
I3
sS"['came', 'to']"
p106
I1
sS"['did', 'seems']"
p107
I1
sS"['night', 'reading']"
p108
I1
sS"['toll-free', 'calls']"
p109
I1
sS"['life', 'of']"
p110
I1
sS"['things', 'began']"
p111
I1
sS"['calls', 'and']"
p112
I1
sS"['hackers', 'across']"
p113
I1
sS"['hacker', 'fights']"
p114
I1
sS"['for', 'safe-']"
p115
I1
sS"['little', 'juvenile']"
p116
I1
sS"['root', 'password']"
p117
I1
sS"['but', 'then']"
p118
I1
sS"['up', 'my']"
p119
I1
sS"['prophet', 'i']"
p120
I1
sS"['who', 'really']"
p121
I1
sS"['i', 'received']"
p122
I1
sS"['into', 'military']"
p123
I1
sS"['heady', 'time']"
p124
I1
sS"['learned', 'from']"
p125
I1
sS"['the', 'prophet']"
p126
I1
sS"['out', 'of']"
p127
I2
sS"['lame', 'local']"
p128
I1
sS"['novation', 'applecat']"
p129
I1
sS"['it', 'happened']"
p130
I1
sS"['onto', 'the']"
p131
I1
sS"['stumbled', 'onto']"
p132
I1
sS"['you', 'know']"
p133
I1
sS"['user', 'to']"
p134
I1
sS"['looks', 'like']"
p135
I1
sS"['because', 'it']"
p136
I1
sS"['longer', 'had']"
p137
I1
sS"['my', 'very']"
p138
I1
sS"['call', 'from']"
p139
I1
sS"['of', 'all']"
p140
I1
sS"['as', 'i']"
p141
I1
sS"['doors', 'to']"
p142
I1
sS"['numbers', 'to']"
p143
I1
sS"['trophy', 'case']"
p144
I1
sS"['call', 'but']"
p145
I1
sS"['let', 'you']"
p146
I1
sS"['i', 'did']"
p147
I1
sS"['t', 'trying']"
p148
I1
sS"['but', 'i']"
p149
I2
sS"['voice', 'may']"
p150
I1
sS"['ultimate', 'target']"
p151
I1
sS"['hobby', 'like']"
p152
I1
sS"['m', 'still']"
p153
I1
sS"['told', 'me']"
p154
I1
sS"['blue', 'boxes']"
p155
I1
sS"['people', 'like']"
p156
I1
sS"['learned', 'how']"
p157
I1
sS"['first', 'the']"
p158
I1
sS"['stolen', 'credit']"
p159
I1
sS"['behind', 'aliases']"
p160
I1
sS"['and', 'phucked']"
p161
I1
sS"['successful', 'career']"
p162
I1
sS"['i', 'signed']"
p163
I1
sS"['back', 'messages']"
p164
I1
sS"['cyberspace', 'looks']"
p165
I1
sS"['who', 'could']"
p166
I1
sS"['apart', 'in']"
p167
I1
sS"['the', 'mines']"
p168
I1
sS"['but', 'not']"
p169
I1
sS"['lex', 'luthor']"
p170
I1
sS"['their', 'private']"
p171
I1
sS"['i', 'had']"
p172
I3
sS"['keeping', 'i']"
p173
I1
sS"['glad', 'i']"
p174
I1
sS"['computers-the', 'ultimate']"
p175
I1
sS"['that', 'nobody']"
p176
I1
sS"['lod', 'was']"
p177
I1
sS"['crime', 'began']"
p178
I1
sS"['into', 'we']"
p179
I1
sS"['the', 'night']"
p180
I2
sS"['passwords', 'to']"
p181
I1
sS"['by', 'frank']"
p182
I1
sS"['d', 'reveal']"
p183
I1
sS"['under', 'the']"
p184
I1
sS"['made', 'a']"
p185
I1
sS"['words', 'member']"
p186
I1
sS"['listing', 'the']"
p187
I1
sS"['wait', 'until']"
p188
I1
sS"['although', 'soon']"
p189
I1
sS"['what', 'cyberspace']"
p190
I1
sS"['were', 'choice']"
p191
I1
sS"['was', 'the']"
p192
I2
sS"['manuals-and', 'dropping']"
p193
I1
sS"['just', 'a']"
p194
I1
sS"['without', 'walls']"
p195
I1
sS"['scary', 'but']"
p196
I1
sS"['passwords', 'my']"
p197
I1
sS"['the', 'rest']"
p198
I1
sS"['run', 'out']"
p199
I1
sS"['to', 'call']"
p200
I1
sS"['then', 'stay']"
p201
I1
sS"['was', 'busted']"
p202
I1
sS"['swelled', 'to']"
p203
I1
sS"['me', 'access']"
p204
I1
sS"['a', 'treasure']"
p205
I1
sS"['basic', 'programming']"
p206
I1
sS"['004', 'these']"
p207
I1
sS"['the', 'size']"
p208
I1
sS"['in', 'unix']"
p209
I1
sS"['my', 'colleagues']"
p210
I1
sS"['sports', 'but']"
p211
I1
sS"['and', 'lod']"
p212
I1
sS"['received', 'a']"
p213
I1
sS"['the', 'telephone']"
p214
I1
sS"['of', 'hacking']"
p215
I1
sS"['we', 'd']"
p216
I1
sS"['and', 'new']"
p217
I1
sS"['enabled', 'the']"
p218
I1
sS"['elite', 'when']"
p219
I1
sS"['sure', 'i']"
p220
I1
sS"['was', 'next']"
p221
I1
sS"['the', 'secret']"
p222
I1
sS"['we', 'explored']"
p223
I1
sS"['bunch', 'of']"
p224
I1
sS"['screen', 'with']"
p225
I1
sS"['was', 'that']"
p226
I3
sS"['make', 'toll-free']"
p227
I1
sS"['the', 'passport']"
p228
I1
sS"['friends', 'house']"
p229
I1
sS"['guys', 'were']"
p230
I1
sS"['strangelove', 'and']"
p231
I1
sS"['authority', 'but']"
p232
I1
sS"['became', 'a']"
p233
I1
sS"['that', 'was']"
p234
I1
sS"['night', 'before']"
p235
I1
sS"['i', 'scored']"
p236
I1
sS"['by', 'hacking']"
p237
I1
sS"['know', 'what']"
p238
I1
sS"['statute', 'of']"
p239
I1
sS"['telephone', 'switches']"
p240
I1
sS"['that', 'blew']"
p241
I1
sS"['view', 'hackers']"
p242
I1
sS"['suddenly', 'among']"
p243
I1
sS"['modem-a', '300-baud']"
p244
I1
sS"['the', 'head']"
p245
I1
sS"['york', 'and']"
p246
I1
sS"['they', 'trusted']"
p247
I1
sS"['a', 'call']"
p248
I2
sS"['busted', 'including']"
p249
I1
sS"['few', 'weeks']"
p250
I1
sS"['specialize', 'in']"
p251
I1
sS"['at', 'the']"
p252
I1
sS"['member', 'legion']"
p253
I1
sS"['and', 'eventually']"
p254
I1
sS"['hacking', 'it']"
p255
I1
sS"['unix', 'chosen']"
p256
I1
sS"['then', 'i']"
p257
I1
sS"['cars', 'or']"
p258
I1
sS"['frank', 'drake']"
p259
I2
sS"['posted', 'messages']"
p260
I1
sS"['controlled', 'most']"
p261
I1
sS"['somehow', 'convincing']"
p262
I1
sS"['what', 'messages']"
p263
I1
sS"['i', 'felt']"
p264
I1
sS"['yet', 'on']"
p265
I1
sS"['the', 'internet']"
p266
I1
sS"['with', 'the']"
p267
I1
sS"['dozens', 'of']"
p268
I1
sS"['were', 'heavy']"
p269
I1
sS"['computer', 'systems']"
p270
I2
sS"['all', 'my']"
p271
I1
sS"['trolling', 'for']"
p272
I1
sS"['securely-locked', 'doors']"
p273
I1
sS"['left', 'notes']"
p274
I1
sS"['of', 'course']"
p275
I1
sS"['a', 'life']"
p276
I1
sS"['parlayed', 'his']"
p277
I1
sS"['doom', 'that']"
p278
I1
sS"['credit', 'reports']"
p279
I1
sS"['that', 'they']"
p280
I1
sS"['bbs', 'what']"
p281
I1
sS"['across', 'the']"
p282
I1
sS"['where', 'he']"
p283
I1
sS"['a', 'small']"
p284
I1
sS"['still', 'i']"
p285
I1
sS"['access', 'to']"
p286
I1
sS"['system', 'used']"
p287
I1
sS"['was', 'now']"
p288
I1
sS"['spread', 'it']"
p289
I1
sS"['at', 'will']"
p290
I1
sS"['member', 'of']"
p291
I1
sS"['they', 'made']"
p292
I1
sS"['the', 'real']"
p293
I1
sS"['could', 'call']"
p294
I1
sS"['knew', 'about']"
p295
I1
sS"['year', 'was']"
p296
I1
sS"['real', 'reason']"
p297
I1
sS"['my', 'parents']"
p298
I1
sS"['fall', 'computer']"
p299
I1
sS"['time', 'i']"
p300
I1
sS"['voted', 'into']"
p301
I1
sS"['rnoc', 'who']"
p302
I1
sS"['never', 'was']"
p303
I1
sS"['sites', 'of']"
p304
I1
sS"['and', 'that']"
p305
I3
sS"['bulletin', 'boards']"
p306
I1
sS"['have', 'helped']"
p307
I1
sS"['card', 'numbers']"
p308
I2
sS"['of', 'lex']"
p309
I1
sS"['clear', 'that']"
p310
I1
sS"['i', 'was']"
p311
I10
sS"['the', 'dozens']"
p312
I1
sS"['talking', 'about']"
p313
I1
sS"['from', 'rnoc']"
p314
I2
sS"['all', 'fun']"
p315
I1
sS"['military', 'computer']"
p316
I1
sS"['i', 'posted']"
p317
I1
sS"['i', 'spent']"
p318
I1
sS"['descent', 'into']"
p319
I1
sS"['routinely', 'monitored']"
p320
I1
sS"['stay', 'up']"
p321
I1
sS"['of', 'limitations']"
p322
I1
sS"['at', 'first']"
p323
I1
sS"['computer', 'system']"
p324
I1
sS"['most', 'of']"
p325
I2
sS"['he', 'always']"
p326
I1
sS"['luthor', 'the']"
p327
I1
sS"['head', 'of']"
p328
I1
sS"['bbss', 'but']"
p329
I1
sS"['teenage', 'hacker']"
p330
I1
sS"['systems', 'bit']"
p331
I1
sS"['seems', 'a']"
p332
I1
sS"['began', 'to']"
p333
I1
sS"['the', 'operating']"
p334
I1
sS"['me', 'that']"
p335
I2
sS"['every', 'time']"
p336
I1
sS"['gone', 'to']"
p337
I1
sS"['for', 'girls']"
p338
I1
sS"['legendary', 'hacker']"
p339
I1
sS"['for', 'actually']"
p340
I1
sS"['but', 'more']"
p341
I1
sS"['electronic', 'travels']"
p342
I1
sS"['mystique', 'was']"
p343
I1
sS"['of', 'computer']"
p344
I3
sS"['up', 'all']"
p345
I1
sS"['ego', 'swelled']"
p346
I1
sS"['doom', 'and']"
p347
I1
sS"['schematics', 'for']"
p348
I1
sS"['planet', 'i']"
p349
I1
sS"['they', 'knew']"
p350
I1
sS"['including', 'bill']"
p351
I1
sS"['call', 'was']"
p352
I1
sS"['i', 'didn']"
p353
I1
sS"['when', 'a']"
p354
I1
sS"['opening', 'screen']"
p355
I1
sS"['but', 'it']"
p356
I1
sS"['all', 'part']"
p357
I1
sS"['life', 'spent']"
p358
I1
sS"['people', 'sat']"
p359
I1
sS"['monitored', 'i']"
p360
I1
sS"['reveal', 'more']"
p361
I1
sS"['weeks', 'after']"
p362
I1
sS"['passport', 'to']"
p363
I1
sS"['that', 'stamp']"
p364
I1
sS"['bit', 'i']"
p365
I1
sS"['lex', 'told']"
p366
I1
sS"['my', 'electronic']"
p367
I1
sS"['shadowy', 'electronic']"
p368
I1
sS"['i', 'd']"
p369
I2
sS"['what', 'i']"
p370
I2
sS"['my', '13-year-']"
p371
I1
sS"['one', 'of']"
p372
I1
sS"['my', 'reputation']"
p373
I1
sS"['legion', 'of']"
p374
I3
sS"['was', 'just']"
p375
I1
sS"['in', '1988']"
p376
I1
sS"['to', 'specialize']"
p377
I1
sS"['was', 'having']"
p378
I1
sS"['busted', 'although']"
p379
I1
sS"['at', 'a']"
p380
I1
sS"['telephone', 'calls']"
p381
I1
sS"['to', 'be']"
p382
I2
sS"['house', 'for']"
p383
I1
sS"['was', 'not']"
p384
I2
sS"['the', 'bbs']"
p385
I1
sS"['hackers', 'of']"
p386
I1
sS"['night', 'posting']"
p387
I1
sS"['by', 'telephone']"
p388
I1
sS"['breaking', 'into']"
p389
I1
sS"['amount', 'of']"
p390
I1
sS"['not', 'lex']"
p391
I1
sS"['the', 'drop']"
p392
I1
sS"['that', 'it']"
p393
I1
sS"['aliases', 'but']"
p394
I1
sS"['lod', 'granted']"
p395
I1
sS"['remember', 'finding']"
p396
I1
sS"['whose', 'mail']"
p397
I1
sS"['payphones', 'that']"
p398
I1
sS"['to', 'break']"
p399
I1
sS"['a', 'telephone']"
p400
I1
sS"['now', 'parlayed']"
p401
I1
sS"['post', 'on']"
p402
I1
sS"['applecat', 'the']"
p403
I1
sS"['i', 'never']"
p404
I1
sS"['of', 'what']"
p405
I1
sS"['that', 'this']"
p406
I1
sS"['science', 'of']"
p407
I1
sS"['lines', 'in']"
p408
I1
sS"['nocturnal', 'existence-a']"
p409
I1
sS"['was', 'a']"
p410
I2
sS"['the', 'country']"
p411
I1
sS"['been', 'nabbed']"
p412
I1
sS"['a', 'seedy']"
p413
I1
sS"['when', 'lex']"
p414
I1
sS"['finding', 'out']"
p415
I1
sS"['warning', 'that']"
p416
I1
sS"['that', 'enabled']"
p417
I1
sS"['to', 'fell']"
p418
I1
sS"['that', 'i']"
p419
I4
sS"['to', 'a']"
p420
I1
sS"['secret', 'life']"
p421
I1
sS"['really', 'know']"
p422
I1
sS"['to', 'get']"
p423
I1
sS"['systems', 'listen']"
p424
I1
sS"['lex', 'he']"
p425
I1
sS"['phone', 'number']"
p426
I1
sS"['signed', 'them']"
p427
I1
sS"['i', 'ended']"
p428
I1
sS"['messages', 'mysterious']"
p429
I1
sS"['in', 'lod']"
p430
I2
sS"['the', 'statute']"
p431
I1
sS"['i', 'm']"
p432
I1
sS"['not', 'that']"
p433
I1
sS"['a', 'root']"
p434
I1
sS"['to', 'sleep']"
p435
I1
sS"['was', 'all']"
p436
I1
sS"['rnoc', 'oryan']"
p437
I1
sS"['dec', 's']"
p438
I1
sS"['after', 'somehow']"
p439
I1
sS"['messages', 'using']"
p440
I1
sS"['heavy', 'they']"
p441
I1
sS"['birthday', 'when']"
p442
I1
sS"['with', 'its']"
p443
I1
sS"['felt', 'like']"
p444
I1
sS"['and', 'envied']"
p445
I1
sS"['sysop', 'that']"
p446
I1
sS"['of', 'legion']"
p447
I1
sS"['a', 'teenage']"
p448
I1
sS"['bill', 'from']"
p449
I2
sS"['of', 'the']"
p450
I5
sS"['>from', 'the']"
p451
I1
sS"['only', 'the']"
p452
I1
sS"['like', 'dr']"
p453
I1
sS"['telephone', 'company']"
p454
I2
sS"['walls', 'impenetrable']"
p455
I1
sS"['a', 'fed']"
p456
I1
sS"['to', 'obstruct']"
p457
I1
sS"['legendary', 'hackers']"
p458
I1
sS"['areas', 'at']"
p459
I1
sS"['spent', 'the']"
p460
I1
sS"['travels', 'the']"
p461
I1
sS"['you', 'could']"
p462
I1
sS"['or', 'the']"
p463
I1
sS"['wasn', 't']"
p464
I2
sS"['colleagues', 'had']"
p465
I1
sS"['targets-either', 'telco']"
p466
I1
sS"['or', 'a']"
p467
I1
sS"['a', 'successful']"
p468
I1
sS"['using', 'stolen']"
p469
I1
sS"['we', 'used']"
p470
I1
sS"['was', 'suddenly']"
p471
I1
sS"['them', 'at']"
p472
I1
sS"['realm', 'where']"
p473
I1
sS"['bulletin', 'board']"
p474
I1
sS"['would', 'let']"
p475
I1
sS"['college', 'that']"
p476
I1
sS"['on', 'most']"
p477
I1
sS"['a', 'heady']"
p478
I1
sS"['those', 'hacks']"
p479
I1
sS"['notebook', 'listing']"
p480
I1
sS"['life', 'in']"
p481
I1
sS"['d', 'wait']"
p482
I1
sS"['and', 'immediately']"
p483
I1
sS"['the', 'alias']"
p484
I1
sS"['a', 'friends']"
p485
I1
sS"['hacking', 'and']"
p486
I1
sS"['dr', 'strangelove']"
p487
I1
sS"['an', 'ordinary']"
p488
I1
sS"['telco', 'systems']"
p489
I1
sS"['of', 'passwords']"
p490
I1
sS"['bit', 'by']"
p491
I1
sS"['top', 'people']"
p492
I1
sS"['was', 'hooked']"
p493
I1
sS"['it', 'was']"
p494
I5
sS"['reputation', 'spread']"
p495
I1
sS"['around', 'talking']"
p496
I1
sS"['in', 'the']"
p497
I1
sS"['fun', 'and']"
p498
I1
sS"['who', 'i']"
p499
I1
sS"['nabbed', 'and']"
p500
I1
sS"['researchers', 'whose']"
p501
I1
sS"['out', 'yet']"
p502
I1
sS"['modem', 'was']"
p503
I1
sS"['t', 'i']"
p504
I1
sS"['like', 'cars']"
p505
I1
sS"['some', 'of']"
p506
I1
sS"['people', 's']"
p507
I1
sS"['mines', 'of']"
p508
I1
sS"['systems', 'or']"
p509
I1
sS"['fights', 'we']"
p510
I1
sS"['all', 'the']"
p511
I2
sS"['boards', 'where']"
p512
I1
sS"['spent', 'under']"
p513
I1
sS"['started', 'college']"
p514
I1
sS"['agent', '004']"
p515
I1
sS"['was', 'sure']"
p516
I1
sS"['target', 'of']"
p517
I1
sS"['my', '13th']"
p518
I1
sS"['knew', 'where']"
p519
I1
sS"['the', 'sysop']"
p520
I1
sS"['happened', 'to']"
p521
I1
sS"['consultant', 'and']"
p522
I1
sS"['juvenile', 'i']"
p523
I1
sS"['about', 'hacking']"
p524
I1
sS"['very', 'first']"
p525
I1
sS"['get', 'into']"
p526
I1
sS"['started', 'to']"
p527
I1
sS"['a', 'hat']"
p528
I1
sS"['phones', 'into']"
p529
I1
sS"['any', 'hacker']"
p530
I1
sS"['them', 'with']"
p531
I1
sS"['and', 'the']"
p532
I2
sS"['reading', 'all']"
p533
I1
sS"['that', 'only']"
p534
I1
sS"['convincing', 'the']"
p535
I1
sS"['drop', 'of']"
p536
I1
sS"['of', 'top']"
p537
I1
sS"['chest', 'i']"
p538
I1
sS"['numbers', 'passwords']"
p539
I1
sS"['my', 'stuff-my']"
p540
I1
sS"['of', 'those']"
p541
I1
sS"['phucked', 'agent']"
p542
I1
sS"['d', 'change']"
p543
I1
sS"['the', 'time']"
p544
I2
sS"['so', 'you']"
p545
I1
sS"['be', 'a']"
p546
I1
sS"['granted', 'me']"
p547
I1
sS"['out', 'my']"
p548
I1
sS"['or', 'securely-locked']"
p549
I1
sS"['of', 'any']"
p550
I1
sS"['case', 'became']"
p551
I1
sS"['company', 'computers-the']"
p552
I1
sS"['the', 'first']"
p553
I1
sS"['i', 'hacked']"
p554
I1
sS"['hackers', 'like']"
p555
I1
sS"['which', 'i']"
p556
I1
sS"['the', 'most']"
p557
I1
sS"['from', 'lex']"
p558
I1
sS"['and', 'trash']"
p559
I1
sS"['illegal', 'still']"
p560
I1
sS"['on', 'my']"
p561
I1
sS"['purloined', 'telephone']"
p562
I1
sS"['private', 'bulletin']"
p563
I1
sS"['many', 'were']"
p564
I1
sS"['envied', 'hackers']"
p565
I1
sS"['t', 'run']"
p566
I1
sS"['i', 'kept']"
p567
I1
sS"['break', 'into']"
p568
I1
sS"['credit', 'card']"
p569
I2
sS"['computer', 'science']"
p570
I1
sS"['trying', 'to']"
p571
I1
sS"['blew', 'my']"
p572
I1
sS"['number', 'so']"
p573
I1
sS"['other', 'hackers']"
p574
I1
sS"['i', 'came']"
p575
I1
sS"['boxes', 'that']"
p576
I1
sS"['more', 'but']"
p577
I1
sS"['13th', 'birthday']"
p578
I1
sS"['our', 'view']"
p579
I1
sS"['modem', 'were']"
p580
I1
sS"['but', 'the']"
p581
I2
sS"['choice', 'targets-either']"
p582
I1
sS"['i', 'learned']"
p583
I1
sS"['always', 'called']"
p584
I1
sS"['may', 'have']"
p585
I1
sS"['mind', 'i']"
p586
I1
sS"['was', '1983']"
p587
I1
sS"['or', 'sports']"
p588
I1
sS"['had', 'gone']"
p589
I1
sS"['scored', 'my']"
p590
I1
sS"['on', 'the']"
p591
I1
sS"['lex', 's']"
p592
I1
sS"['not', 'a']"
p593
I1
sS"['a', 'sick']"
p594
I1
sS"['as', 'a']"
p595
I2
sS"['know', 'their']"
p596
I1
sS"['a', 'notebook']"
p597
I1
sS"['secret', 'service']"
p598
I1
sS"['rummaging', 'through']"
p599
I1
sS"['first', 'few']"
p600
I1
sS"['to', 'dec']"
p601
I1
sS"['call', 'pull']"
p602
I1
sS"['and', 'one']"
p603
I1
sS"['1983', 'and']"
p604
I1
sS"['girls', 'but']"
p605
I1
sS"['from', 'the']"
p606
I1
sS"['internet', 'from']"
p607
I1
sS"['soon', 'after']"
p608
I1
sS"['1988', 'when']"
p609
I1
sS"['prepared', 'for']"
p610
I1
sS"['the', 'opening']"
p611
I1
sS"['been', 'voted']"
p612
I1
sS"['notes', 'containing']"
p613
I1
sS"['listen', 'into']"
p614
I1
sS"['used', 'by']"
p615
I1
sS"['quest', 'and']"
p616
I1
sS"['its', 'warning']"
p617
I1
sS"['profit', 'by']"
p618
I1
sS"['i', 'stumbled']"
p619
I1
sS"['these', 'guys']"
p620
I1
sS"['to', 'make']"
p621
I2
sS"['my', 'trophy']"
p622
I1
sS"['operating', 'system']"
p623
I1
sS"['implied', 'almost']"
p624
I1
sS"['service', 'warning']"
p625
I1
sS"['seedy', 'nocturnal']"
p626
I1
sS"['hacked', 'we']"
p627
I1
sS"['that', 'modem']"
p628
I1
sS"['and', 'breaking']"
p629
I1
sS"['and', 'games']"
p630
I1
sS"['who', 'has']"
p631
I1
sS"['security', 'consultant']"
p632
I1
sS"['to', 'the']"
p633
I1
sS"['of', 'a']"
p634
I3
sS"['enemies', 'credit']"
p635
I1
sS"['impenetrable', 'barriers']"
p636
I1
sS"['sleep', 'and']"
p637
I1
sS"['from', 'my']"
p638
I1
sS"['mail', 'we']"
p639
I1
sS"['by', 'bit']"
p640
I1
sS"['fun', 'but']"
p641
I1
sS"['that', 'fall']"
p642
I1
sS"['bbs', 'after']"
p643
I1
sS"['helped', 'and']"
p644
I1
sS"['but', 'once']"
p645
I1
sS"['password', 'out']"
p646
I1
sS"['messages', 'i']"
p647
I1
sS"['up', 'dropping']"
p648
I1
sS"['doom', 'i']"
p649
I1
sS"['into', 'a']"
p650
I2
sS"['unparalleled', 'vantage']"
p651
I1
sS"['had', 'cracked']"
p652
I1
sS"['to', 'post']"
p653
I1
sS"['sick', 'amount']"
p654
I1
sS"['more', 'importantly']"
p655
I1
sS"['vantage', 'point']"
p656
I1
sS"['only', 'ones']"
p657
I1
sS"['course', 'and']"
p658
I1
sS"['hid', 'behind']"
p659
I1
sS"['keep', 'as']"
p660
I1
sS"['an', 'unparalleled']"
p661
I1
sS"['had', 'the']"
p662
I1
sS"['i', 'knew']"
p663
I1
sS"['group', 'legion']"
p664
I1
sS"['alias', 'frank']"
p665
I1
sS"['social', 'engineer']"
p666
I1
sS"['i', 'remember']"
p667
I2
sS"['s', 'internal']"
p668
I1
sS"['the', 'user']"
p669
I1
sS"['where', 'i']"
p670
I1
sS"['the', 'hacker']"
p671
I1
sS"['began', 'on']"
p672
I1
sS"['internal', 'computer']"
p673
I1
sS"['hat', 'erik']"
p674
I1
sS"['called', 'you']"
p675
I1
sS"['safe-', 'keeping']"
p676
I1
sS"['warning', 'me']"
p677
I1
sS"['you', 'they']"
p678
I1
sS"['earn', 'my']"
p679
I1
sS"['treasure', 'chest']"
p680
I1
sS"['my', 'purloined']"
p681
I1
sS"['limitations', 'hasn']"
p682
I1
sS"['into', 'telephone']"
p683
I1
sS"['his', 'life']"
p684
I1
sS"['computer', 'crime']"
p685
I1
sS"['oryan', 'quest']"
p686
I1
sS"['chosen', 'because']"
p687
I1
sS"['these', 'areas']"
p688
I1
sS"['and', 'trolling']"
p689
I1
sS"['systems', 'i']"
p690
I1
sS"['small', 'planet']"
p691
I1
sS"['had', 'left']"
p692
I1
sS"['now', 'in']"
p693
I1
sS"['300-baud', 'novation']"
p694
I1
sS"['statement', 'or']"
p695
I1
sS"['technician', 'at']"
p696
I1
sS"['programming', 'and']"
p697
I1
sS"['they', 'controlled']"
p698
I1
sS"['to', 'their']"
p699
I1
sS"['the', 'legendary']"
p700
I1
sS"['looking', 'back']"
p701
I1
sS"['dropping', 'them']"
p702
I1
sS"['lod', 'my']"
p703
I1
sS"['hasn', 't']"
p704
I1
sS"['ordinary', 'bbs']"
p705
I1
sS"['after', 'i']"
p706
I2
sS"['career', 'as']"
p707
I1
sS"['not', 'an']"
p708
I1
sS"['electronic', 'realm']"
p709
I1
sS"['stuff-my', 'lists']"
p710
I1
sS"['we', 'routinely']"
p711
I1
sS"['home', 'phones']"
p712
I1
sS"['was', 'clear']"
p713
I1
sS"['my', 'mind']"
p714
I1
sS"['could', 'social']"
p715
I1
sS"['where', 'people']"
p716
I1
sS"['reason', 'i']"
p717
I1
sS"['feared', 'and']"
p718
I1
sS"['erik', 'bloodaxe']"
p719
I1
sS"['the', 'back']"
p720
I1
sS"['was', 'from']"
p721
I1
sS"['part', 'of']"
p722
I1
sS"['limitless', 'authority']"
p723
I1
sS"['the', 'only']"
p724
I1
sS"['enter', 'it']"
p725
I1
sS"['stamp', 'implied']"
p726
I1
sS"['membership', 'in']"
p727
I1
sS"['he', 'lived']"
p728
I1
sS"['people', 'got']"
p729
I1
sS"['in', 'these']"
p730
I1
sS"['california', 'florida']"
p731
I1
sS"['actually', 'getting']"
p732
I1
sS"['the', 'intruder']"
p733
I1
sS"['messages', 'and']"
p734
I1
sS"['having', 'a']"
p735
I1
sS"['no', 'longer']"
p736
I1
sS"['among', 'legendary']"
p737
I1
sS"['first', 'modem-a']"
p738
I1
sS"['from', 'an']"
p739
I1
sS"['had', 'learned']"
p740
I1
sS"['sat', 'around']"
p741
I1
sS"['containing', 'mci']"
p742
I1
sS"['posting', 'messages']"
p743
I1
sS"['bloodaxe', 'who']"
p744
I1
sS"['trash', 'bbss']"
p745
I1
sS"['for', 'blue']"
p746
I1
sS"['of', 'fun']"
p747
I1
sS"['back', 'some']"
p748
I1
sS"['elite', 'may']"
p749
I1
sS"['and', 'then']"
p750
I1
sS"['that', 'would']"
p751
I1
sS"['how', 'to']"
p752
I1
sS"['13-year-', 'old']"
p753
I1
sS"['ones', 'who']"
p754
I1
sS"['a', 'bunch']"
p755
I1
sS"['hacking', 'which']"
p756
I1
sS"['fell', 'apart']"
p757
I1
sS"['their', 'phone']"
p758
I1
sS"['remember', 'the']"
p759
I1
sS"['mci', 'credit']"
p760
I1
sS"['florida', 'and']"
p761
I1
sS"['hackers', 'hid']"
p762
I1
sS"['the', 'year']"
p763
I1
sS"['dropping', 'out']"
p764
I1
sS"['may', 'enter']"
p765
I1
sS"['money', 'every']"
p766
I1
sS"['our', 'enemies']"
p767
I1
sS"['make', 'a']"
p768
I1
sS"['call', 'other']"
p769
I1
sS"['they', 'would']"
p770
I1
sS"['switches', 'in']"
p771
I1
sS"['computer', 'security']"
p772
I2
sS"['got', 'busted']"
p773
I1
sS"['country', 'and']"
p774
I1
sS"['and', 'no']"
p775
I1
sS"['barriers', 'or']"
p776
I1
sS"['a', 'profit']"
p777
I1
sS"['of', 'moria']"
p778
I1
sS"['computer', 'criminal']"
p779
I1
s.